target datalayout = "e-m:e-p270:32:32-p271:32:32-p272:64:64-i64:64-i128:128-f80:128-n8:16:32:64-S128"
target triple = "x86_64-pc-linux-gnu"

%"class.llvm::APInt" = type <{ %union.anon.59, i32, [4 x i8] }>
%union.anon.59 = type { i64 }

; Function Attrs: mustprogress nounwind uwtable
define linkonce_odr hidden noundef zeroext i1 @_ZNK4llvm5APInt12isSingleWordEv(ptr noundef nonnull align 8 dereferenceable(12) %0) #0 comdat align 2 {
  %2 = alloca ptr, align 8
  store ptr %0, ptr %2, align 8
  %3 = load ptr, ptr %2, align 8
  %4 = getelementptr inbounds nuw %"class.llvm::APInt", ptr %3, i32 0, i32 1
  %5 = load i32, ptr %4, align 8
  %6 = icmp ule i32 %5, 64
  ret i1 %6
}

; Function Attrs: mustprogress nounwind uwtable
define linkonce_odr hidden noundef zeroext i1 @_ZNK4llvm5APInt9isAllOnesEv(ptr noundef nonnull align 8 dereferenceable(12) %0) #0 comdat align 2 {
  %2 = alloca i1, align 1
  %3 = alloca ptr, align 8
  store ptr %0, ptr %3, align 8
  %4 = load ptr, ptr %3, align 8
  %5 = getelementptr inbounds nuw %"class.llvm::APInt", ptr %4, i32 0, i32 1
  %6 = load i32, ptr %5, align 8
  %7 = icmp eq i32 %6, 0
  br i1 %7, label %8, label %9

8:                                                ; preds = %1
  store i1 true, ptr %2, align 1
  br label %25

9:                                                ; preds = %1
  %10 = call noundef zeroext i1 @_ZNK4llvm5APInt12isSingleWordEv(ptr noundef nonnull align 8 dereferenceable(12) %4)
  br i1 %10, label %11, label %20

11:                                               ; preds = %9
  %12 = getelementptr inbounds nuw %"class.llvm::APInt", ptr %4, i32 0, i32 0
  %13 = load i64, ptr %12, align 8
  %14 = getelementptr inbounds nuw %"class.llvm::APInt", ptr %4, i32 0, i32 1
  %15 = load i32, ptr %14, align 8
  %16 = sub i32 64, %15
  %17 = zext i32 %16 to i64
  %18 = lshr i64 -1, %17
  %19 = icmp eq i64 %13, %18
  store i1 %19, ptr %2, align 1
  br label %25

20:                                               ; preds = %9
  %21 = call noundef i32 @_ZNK4llvm5APInt25countTrailingOnesSlowCaseEv(ptr noundef nonnull align 8 dereferenceable(12) %4) #10
  %22 = getelementptr inbounds nuw %"class.llvm::APInt", ptr %4, i32 0, i32 1
  %23 = load i32, ptr %22, align 8
  %24 = icmp eq i32 %21, %23
  store i1 %24, ptr %2, align 1
  br label %25

25:                                               ; preds = %20, %11, %8
  %26 = load i1, ptr %2, align 1
  ret i1 %26
}

; Function Attrs: mustprogress nounwind uwtable
define linkonce_odr hidden noundef zeroext i1 @_ZNK4llvm5APInt5isOneEv(ptr noundef nonnull align 8 dereferenceable(12) %0) #0 comdat align 2 {
  %2 = alloca i1, align 1
  %3 = alloca ptr, align 8
  store ptr %0, ptr %3, align 8
  %4 = load ptr, ptr %3, align 8
  %5 = call noundef zeroext i1 @_ZNK4llvm5APInt12isSingleWordEv(ptr noundef nonnull align 8 dereferenceable(12) %4)
  br i1 %5, label %6, label %10

6:                                                ; preds = %1
  %7 = getelementptr inbounds nuw %"class.llvm::APInt", ptr %4, i32 0, i32 0
  %8 = load i64, ptr %7, align 8
  %9 = icmp eq i64 %8, 1
  store i1 %9, ptr %2, align 1
  br label %16

10:                                               ; preds = %1
  %11 = call noundef i32 @_ZNK4llvm5APInt25countLeadingZerosSlowCaseEv(ptr noundef nonnull align 8 dereferenceable(12) %4) #10
  %12 = getelementptr inbounds nuw %"class.llvm::APInt", ptr %4, i32 0, i32 1
  %13 = load i32, ptr %12, align 8
  %14 = sub i32 %13, 1
  %15 = icmp eq i32 %11, %14
  store i1 %15, ptr %2, align 1
  br label %16

16:                                               ; preds = %10, %6
  %17 = load i1, ptr %2, align 1
  ret i1 %17
}

; Function Attrs: mustprogress nounwind uwtable
define linkonce_odr hidden noundef zeroext i1 @_ZNK4llvm5APInt6isZeroEv(ptr noundef nonnull align 8 dereferenceable(12) %0) #0 comdat align 2 {
  %2 = alloca i1, align 1
  %3 = alloca ptr, align 8
  store ptr %0, ptr %3, align 8
  %4 = load ptr, ptr %3, align 8
  %5 = call noundef zeroext i1 @_ZNK4llvm5APInt12isSingleWordEv(ptr noundef nonnull align 8 dereferenceable(12) %4)
  br i1 %5, label %6, label %10

6:                                                ; preds = %1
  %7 = getelementptr inbounds nuw %"class.llvm::APInt", ptr %4, i32 0, i32 0
  %8 = load i64, ptr %7, align 8
  %9 = icmp eq i64 %8, 0
  store i1 %9, ptr %2, align 1
  br label %15

10:                                               ; preds = %1
  %11 = call noundef i32 @_ZNK4llvm5APInt25countLeadingZerosSlowCaseEv(ptr noundef nonnull align 8 dereferenceable(12) %4) #10
  %12 = getelementptr inbounds nuw %"class.llvm::APInt", ptr %4, i32 0, i32 1
  %13 = load i32, ptr %12, align 8
  %14 = icmp eq i32 %11, %13
  store i1 %14, ptr %2, align 1
  br label %15

15:                                               ; preds = %10, %6
  %16 = load i1, ptr %2, align 1
  ret i1 %16
}

; Function Attrs: mustprogress nounwind uwtable
define internal noundef zeroext i1 @_ZL10isSelect01RKN4llvm5APIntES2_(ptr noundef nonnull align 8 dereferenceable(12) %0, ptr noundef nonnull align 8 dereferenceable(12) %1) #0 {
  %3 = alloca i1, align 1
  %4 = alloca ptr, align 8
  %5 = alloca ptr, align 8
  store ptr %0, ptr %4, align 8
  store ptr %1, ptr %5, align 8
  %6 = load ptr, ptr %4, align 8
  %7 = call noundef zeroext i1 @_ZNK4llvm5APInt6isZeroEv(ptr noundef nonnull align 8 dereferenceable(12) %6)
  br i1 %7, label %12, label %8

8:                                                ; preds = %2
  %9 = load ptr, ptr %5, align 8
  %10 = call noundef zeroext i1 @_ZNK4llvm5APInt6isZeroEv(ptr noundef nonnull align 8 dereferenceable(12) %9)
  br i1 %10, label %12, label %11

11:                                               ; preds = %8
  store i1 false, ptr %3, align 1
  br label %26

12:                                               ; preds = %8, %2
  %13 = load ptr, ptr %4, align 8
  %14 = call noundef zeroext i1 @_ZNK4llvm5APInt5isOneEv(ptr noundef nonnull align 8 dereferenceable(12) %13)
  br i1 %14, label %24, label %15

15:                                               ; preds = %12
  %16 = load ptr, ptr %4, align 8
  %17 = call noundef zeroext i1 @_ZNK4llvm5APInt9isAllOnesEv(ptr noundef nonnull align 8 dereferenceable(12) %16)
  br i1 %17, label %24, label %18

18:                                               ; preds = %15
  %19 = load ptr, ptr %5, align 8
  %20 = call noundef zeroext i1 @_ZNK4llvm5APInt5isOneEv(ptr noundef nonnull align 8 dereferenceable(12) %19)
  br i1 %20, label %24, label %21

21:                                               ; preds = %18
  %22 = load ptr, ptr %5, align 8
  %23 = call noundef zeroext i1 @_ZNK4llvm5APInt9isAllOnesEv(ptr noundef nonnull align 8 dereferenceable(12) %22)
  br label %24

24:                                               ; preds = %21, %18, %15, %12
  %25 = phi i1 [ true, %18 ], [ true, %15 ], [ true, %12 ], [ %23, %21 ]
  store i1 %25, ptr %3, align 1
  br label %26

26:                                               ; preds = %24, %11
  %27 = load i1, ptr %3, align 1
  ret i1 %27
}