; Function Attrs: mustprogress nofree nounwind willreturn memory(read) uwtable
define internal fastcc noundef zeroext i1 @_ZL10isSelect01RKN4llvm5APIntES2_(ptr noundef nonnull readonly align 8 dereferenceable(12) %0, ptr noundef nonnull readonly align 8 dereferenceable(12) %1) unnamed_addr #7 {
  %3 = getelementptr inbounds nuw i8, ptr %0, i64 8
  %4 = load i32, ptr %3, align 8
  %5 = icmp ult i32 %4, 65
  br i1 %5, label %6, label %_ZNK4llvm5APInt6isZeroEv.exit

6:                                                ; preds = %2
  %7 = load i64, ptr %0, align 8
  %8 = icmp eq i64 %7, 0
  br i1 %8, label %.thread.thread, label %11

_ZNK4llvm5APInt6isZeroEv.exit:                    ; preds = %2
  %9 = tail call noundef i32 @_ZNK4llvm5APInt25countLeadingZerosSlowCaseEv(ptr noundef nonnull align 8 dereferenceable(12) %0) #18
  %10 = icmp eq i32 %9, %4
  br i1 %10, label %_ZNK4llvm5APInt5isOneEv.exit, label %11

11:                                               ; preds = %6, %_ZNK4llvm5APInt6isZeroEv.exit
  %12 = getelementptr inbounds nuw i8, ptr %1, i64 8
  %13 = load i32, ptr %12, align 8
  %14 = icmp ult i32 %13, 65
  br i1 %14, label %15, label %_ZNK4llvm5APInt6isZeroEv.exit8

15:                                               ; preds = %11
  %16 = load i64, ptr %1, align 8
  %17 = icmp eq i64 %16, 0
  br i1 %17, label %20, label %_ZNK4llvm5APInt9isAllOnesEv.exit14

_ZNK4llvm5APInt6isZeroEv.exit8:                   ; preds = %11
  %18 = tail call noundef i32 @_ZNK4llvm5APInt25countLeadingZerosSlowCaseEv(ptr noundef nonnull align 8 dereferenceable(12) %1) #18
  %19 = icmp eq i32 %18, %13
  br i1 %19, label %20, label %_ZNK4llvm5APInt9isAllOnesEv.exit14

20:                                               ; preds = %15, %_ZNK4llvm5APInt6isZeroEv.exit8
  br i1 %5, label %.thread, label %_ZNK4llvm5APInt5isOneEv.exit

.thread:                                          ; preds = %20
  %.pr = load i64, ptr %0, align 8
  %21 = icmp eq i64 %.pr, 1
  %22 = icmp eq i32 %4, 0
  %or.cond = or i1 %22, %21
  br i1 %or.cond, label %_ZNK4llvm5APInt9isAllOnesEv.exit14, label %26

_ZNK4llvm5APInt5isOneEv.exit:                     ; preds = %_ZNK4llvm5APInt6isZeroEv.exit, %20
  %23 = tail call noundef i32 @_ZNK4llvm5APInt25countLeadingZerosSlowCaseEv(ptr noundef nonnull align 8 dereferenceable(12) %0) #18
  %24 = add i32 %4, -1
  %25 = icmp eq i32 %23, %24
  br i1 %25, label %_ZNK4llvm5APInt9isAllOnesEv.exit14, label %_ZNK4llvm5APInt9isAllOnesEv.exit

.thread.thread:                                   ; preds = %6
  %.old = icmp eq i32 %4, 0
  br i1 %.old, label %_ZNK4llvm5APInt9isAllOnesEv.exit14, label %.thread23

26:                                               ; preds = %.thread
  %27 = sub nuw nsw i32 64, %4
  %28 = zext nneg i32 %27 to i64
  %29 = lshr i64 -1, %28
  %30 = icmp eq i64 %.pr, %29
  br i1 %30, label %_ZNK4llvm5APInt9isAllOnesEv.exit14, label %.thread23

_ZNK4llvm5APInt9isAllOnesEv.exit:                 ; preds = %_ZNK4llvm5APInt5isOneEv.exit
  %31 = tail call noundef i32 @_ZNK4llvm5APInt25countTrailingOnesSlowCaseEv(ptr noundef nonnull align 8 dereferenceable(12) %0) #18
  %32 = icmp eq i32 %31, %4
  br i1 %32, label %_ZNK4llvm5APInt9isAllOnesEv.exit14, label %.thread23

.thread23:                                        ; preds = %.thread.thread, %26, %_ZNK4llvm5APInt9isAllOnesEv.exit
  %33 = getelementptr inbounds nuw i8, ptr %1, i64 8
  %34 = load i32, ptr %33, align 8
  %35 = icmp ult i32 %34, 65
  br i1 %35, label %36, label %_ZNK4llvm5APInt5isOneEv.exit12

36:                                               ; preds = %.thread23
  %37 = load i64, ptr %1, align 8
  %38 = icmp eq i64 %37, 1
  %39 = icmp eq i32 %34, 0
  %or.cond22 = or i1 %39, %38
  br i1 %or.cond22, label %_ZNK4llvm5APInt9isAllOnesEv.exit14, label %43

_ZNK4llvm5APInt5isOneEv.exit12:                   ; preds = %.thread23
  %40 = tail call noundef i32 @_ZNK4llvm5APInt25countLeadingZerosSlowCaseEv(ptr noundef nonnull align 8 dereferenceable(12) %1) #18
  %41 = add i32 %34, -1
  %42 = icmp eq i32 %40, %41
  br i1 %42, label %_ZNK4llvm5APInt9isAllOnesEv.exit14, label %48

43:                                               ; preds = %36
  %44 = sub nuw nsw i32 64, %34
  %45 = zext nneg i32 %44 to i64
  %46 = lshr i64 -1, %45
  %47 = icmp eq i64 %37, %46
  br label %_ZNK4llvm5APInt9isAllOnesEv.exit14

48:                                               ; preds = %_ZNK4llvm5APInt5isOneEv.exit12
  %49 = tail call noundef i32 @_ZNK4llvm5APInt25countTrailingOnesSlowCaseEv(ptr noundef nonnull align 8 dereferenceable(12) %1) #18
  %50 = icmp eq i32 %49, %34
  br label %_ZNK4llvm5APInt9isAllOnesEv.exit14

_ZNK4llvm5APInt9isAllOnesEv.exit14:               ; preds = %.thread.thread, %48, %43, %36, %26, %.thread, %15, %_ZNK4llvm5APInt5isOneEv.exit, %_ZNK4llvm5APInt9isAllOnesEv.exit, %_ZNK4llvm5APInt5isOneEv.exit12, %_ZNK4llvm5APInt6isZeroEv.exit8
  %.0 = phi i1 [ false, %_ZNK4llvm5APInt6isZeroEv.exit8 ], [ true, %_ZNK4llvm5APInt5isOneEv.exit12 ], [ true, %_ZNK4llvm5APInt9isAllOnesEv.exit ], [ true, %_ZNK4llvm5APInt5isOneEv.exit ], [ false, %15 ], [ true, %.thread ], [ true, %26 ], [ true, %36 ], [ %47, %43 ], [ %50, %48 ], [ true, %.thread.thread ]
  ret i1 %.0
}